; Function Attrs: nounwind uwtable
define double @Java_com_sun_management_internal_OperatingSystemImpl_getCpuLoad0(ptr nocapture noundef readnone %0, ptr nocapture noundef readnone %1) local_unnamed_addr #0 {
  %3 = alloca double, align 8
  %4 = tail call i32 @perfInit()
  %5 = icmp eq i32 %4, 0
  br i1 %5, label %6, label %14

6:                                                ; preds = %2
  call void @llvm.lifetime.start.p0(i64 8, ptr nonnull %3)
  %7 = call fastcc double @get_cpuload_internal(i32 noundef -1, ptr noundef nonnull %3, i32 noundef 1)
  %8 = fcmp olt double %7, 0.000000e+00
  br i1 %8, label %get_cpu_load.exit, label %9

9:                                                ; preds = %6
  %10 = load double, ptr %3, align 8
  %11 = fadd double %7, %10
  %12 = fcmp olt double %11, 1.000000e+00
  %13 = select i1 %12, double %11, double 1.000000e+00
  br label %get_cpu_load.exit

get_cpu_load.exit:                                ; preds = %6, %9
  %.0.i = phi double [ %13, %9 ], [ -1.000000e+00, %6 ]
  call void @llvm.lifetime.end.p0(i64 8, ptr nonnull %3)
  br label %14

14:                                               ; preds = %2, %get_cpu_load.exit
  %.0 = phi double [ %.0.i, %get_cpu_load.exit ], [ -1.000000e+00, %2 ]
  ret double %.0
}